target datalayout = "e-m:e-p270:32:32-p271:32:32-p272:64:64-i64:64-i128:128-f80:128-n8:16:32:64-S128"
target triple = "x86_64-pc-linux-gnu"

%"struct.duckdb_libpgquery::yyguts_t" = type { ptr, ptr, ptr, i64, i64, ptr, i8, i64, i64, ptr, i32, i32, i32, i32, i32, ptr, i32, ptr, i32, i32, ptr, i32, i32, ptr, ptr }
%"struct.duckdb_libpgquery::core_yy_extra_type" = type { ptr, i64, ptr, i32, i32, i8, i8, ptr, i32, i32, i32, ptr, i32, i8, i8 }
%"struct.duckdb_libpgquery::yy_buffer_state" = type { ptr, ptr, ptr, i64, i64, i32, i32, i32, i32, i32, i32, i32 }

@_ZN17duckdb_libpgquery15backslash_quoteE = hidden global i32 2, align 4
@_ZN17duckdb_libpgquery21escape_string_warningE = hidden global i8 1, align 1
@_ZN17duckdb_libpgquery27standard_conforming_stringsE = hidden global i8 1, align 1
@.str.28 = private unnamed_addr constant [42 x i8] c"out of dynamic memory in yy_scan_buffer()\00", align 1
@.str.35 = private unnamed_addr constant [24 x i8] c"yylex_init() failed: %m\00", align 1

; Function Attrs: mustprogress nounwind uwtable
define internal noundef i32 @_ZN17duckdb_libpgqueryL15yy_init_globalsEPv(ptr noundef %0) #2 {
  %2 = alloca ptr, align 8
  %3 = alloca ptr, align 8
  store ptr %0, ptr %2, align 8, !tbaa !10
  call void @llvm.lifetime.start.p0(i64 8, ptr %3) #11
  %4 = load ptr, ptr %2, align 8, !tbaa !10
  store ptr %4, ptr %3, align 8, !tbaa !11
  %5 = load ptr, ptr %3, align 8, !tbaa !11
  %6 = getelementptr inbounds nuw %"struct.duckdb_libpgquery::yyguts_t", ptr %5, i32 0, i32 5
  store ptr null, ptr %6, align 8, !tbaa !24
  %7 = load ptr, ptr %3, align 8, !tbaa !11
  %8 = getelementptr inbounds nuw %"struct.duckdb_libpgquery::yyguts_t", ptr %7, i32 0, i32 3
  store i64 0, ptr %8, align 8, !tbaa !25
  %9 = load ptr, ptr %3, align 8, !tbaa !11
  %10 = getelementptr inbounds nuw %"struct.duckdb_libpgquery::yyguts_t", ptr %9, i32 0, i32 4
  store i64 0, ptr %10, align 8, !tbaa !75
  %11 = load ptr, ptr %3, align 8, !tbaa !11
  %12 = getelementptr inbounds nuw %"struct.duckdb_libpgquery::yyguts_t", ptr %11, i32 0, i32 9
  store ptr null, ptr %12, align 8, !tbaa !29
  %13 = load ptr, ptr %3, align 8, !tbaa !11
  %14 = getelementptr inbounds nuw %"struct.duckdb_libpgquery::yyguts_t", ptr %13, i32 0, i32 10
  store i32 0, ptr %14, align 8, !tbaa !22
  %15 = load ptr, ptr %3, align 8, !tbaa !11
  %16 = getelementptr inbounds nuw %"struct.duckdb_libpgquery::yyguts_t", ptr %15, i32 0, i32 11
  store i32 0, ptr %16, align 4, !tbaa !23
  %17 = load ptr, ptr %3, align 8, !tbaa !11
  %18 = getelementptr inbounds nuw %"struct.duckdb_libpgquery::yyguts_t", ptr %17, i32 0, i32 13
  store i32 0, ptr %18, align 4, !tbaa !102
  %19 = load ptr, ptr %3, align 8, !tbaa !11
  %20 = getelementptr inbounds nuw %"struct.duckdb_libpgquery::yyguts_t", ptr %19, i32 0, i32 14
  store i32 0, ptr %20, align 8, !tbaa !103
  %21 = load ptr, ptr %3, align 8, !tbaa !11
  %22 = getelementptr inbounds nuw %"struct.duckdb_libpgquery::yyguts_t", ptr %21, i32 0, i32 15
  store ptr null, ptr %22, align 8, !tbaa !104
  %23 = load ptr, ptr %3, align 8, !tbaa !11
  %24 = getelementptr inbounds nuw %"struct.duckdb_libpgquery::yyguts_t", ptr %23, i32 0, i32 1
  store ptr null, ptr %24, align 8, !tbaa !28
  %25 = load ptr, ptr %3, align 8, !tbaa !11
  %26 = getelementptr inbounds nuw %"struct.duckdb_libpgquery::yyguts_t", ptr %25, i32 0, i32 2
  store ptr null, ptr %26, align 8, !tbaa !99
  call void @llvm.lifetime.end.p0(i64 8, ptr %3) #11
  ret i32 0
}

; Function Attrs: mustprogress uwtable
define hidden noundef ptr @_ZN17duckdb_libpgquery12core_yyallocEmPv(i64 noundef %0, ptr noundef %1) #0 {
  %3 = alloca i64, align 8
  %4 = alloca ptr, align 8
  store i64 %0, ptr %3, align 8, !tbaa !74
  store ptr %1, ptr %4, align 8, !tbaa !10
  %5 = load i64, ptr %3, align 8, !tbaa !74
  %6 = call noundef ptr @_ZN17duckdb_libpgquery6pallocEm(i64 noundef %5)
  ret ptr %6
}

; Function Attrs: mustprogress uwtable
define hidden noundef ptr @_ZN17duckdb_libpgquery19core_yy_scan_bufferEPcmPv(ptr noundef %0, i64 noundef %1, ptr noundef %2) #0 {
  %4 = alloca ptr, align 8
  %5 = alloca ptr, align 8
  %6 = alloca i64, align 8
  %7 = alloca ptr, align 8
  %8 = alloca ptr, align 8
  %9 = alloca i32, align 4
  store ptr %0, ptr %5, align 8, !tbaa !30
  store i64 %1, ptr %6, align 8, !tbaa !74
  store ptr %2, ptr %7, align 8, !tbaa !10
  call void @llvm.lifetime.start.p0(i64 8, ptr %8) #11
  %10 = load i64, ptr %6, align 8, !tbaa !74
  %11 = icmp ult i64 %10, 2
  br i1 %11, label %28, label %12

12:                                               ; preds = %3
  %13 = load ptr, ptr %5, align 8, !tbaa !30
  %14 = load i64, ptr %6, align 8, !tbaa !74
  %15 = sub i64 %14, 2
  %16 = getelementptr inbounds nuw i8, ptr %13, i64 %15
  %17 = load i8, ptr %16, align 1, !tbaa !32
  %18 = sext i8 %17 to i32
  %19 = icmp ne i32 %18, 0
  br i1 %19, label %28, label %20

20:                                               ; preds = %12
  %21 = load ptr, ptr %5, align 8, !tbaa !30
  %22 = load i64, ptr %6, align 8, !tbaa !74
  %23 = sub i64 %22, 1
  %24 = getelementptr inbounds nuw i8, ptr %21, i64 %23
  %25 = load i8, ptr %24, align 1, !tbaa !32
  %26 = sext i8 %25 to i32
  %27 = icmp ne i32 %26, 0
  br i1 %27, label %28, label %29

28:                                               ; preds = %20, %12, %3
  store ptr null, ptr %4, align 8
  store i32 1, ptr %9, align 4
  br label %68

29:                                               ; preds = %20
  %30 = load ptr, ptr %7, align 8, !tbaa !10
  %31 = call noundef ptr @_ZN17duckdb_libpgquery12core_yyallocEmPv(i64 noundef 72, ptr noundef %30)
  store ptr %31, ptr %8, align 8, !tbaa !26
  %32 = load ptr, ptr %8, align 8, !tbaa !26
  %33 = icmp ne ptr %32, null
  br i1 %33, label %36, label %34

34:                                               ; preds = %29
  %35 = load ptr, ptr %7, align 8, !tbaa !10
  call void @_ZN17duckdb_libpgqueryL14yy_fatal_errorEPKcPv(ptr noundef @.str.28, ptr noundef %35) #13
  unreachable

36:                                               ; preds = %29
  %37 = load i64, ptr %6, align 8, !tbaa !74
  %38 = sub i64 %37, 2
  %39 = trunc i64 %38 to i32
  %40 = sext i32 %39 to i64
  %41 = load ptr, ptr %8, align 8, !tbaa !26
  %42 = getelementptr inbounds nuw %"struct.duckdb_libpgquery::yy_buffer_state", ptr %41, i32 0, i32 3
  store i64 %40, ptr %42, align 8, !tbaa !77
  %43 = load ptr, ptr %5, align 8, !tbaa !30
  %44 = load ptr, ptr %8, align 8, !tbaa !26
  %45 = getelementptr inbounds nuw %"struct.duckdb_libpgquery::yy_buffer_state", ptr %44, i32 0, i32 1
  store ptr %43, ptr %45, align 8, !tbaa !71
  %46 = load ptr, ptr %8, align 8, !tbaa !26
  %47 = getelementptr inbounds nuw %"struct.duckdb_libpgquery::yy_buffer_state", ptr %46, i32 0, i32 2
  store ptr %43, ptr %47, align 8, !tbaa !79
  %48 = load ptr, ptr %8, align 8, !tbaa !26
  %49 = getelementptr inbounds nuw %"struct.duckdb_libpgquery::yy_buffer_state", ptr %48, i32 0, i32 5
  store i32 0, ptr %49, align 8, !tbaa !78
  %50 = load ptr, ptr %8, align 8, !tbaa !26
  %51 = getelementptr inbounds nuw %"struct.duckdb_libpgquery::yy_buffer_state", ptr %50, i32 0, i32 0
  store ptr null, ptr %51, align 8, !tbaa !70
  %52 = load ptr, ptr %8, align 8, !tbaa !26
  %53 = getelementptr inbounds nuw %"struct.duckdb_libpgquery::yy_buffer_state", ptr %52, i32 0, i32 3
  %54 = load i64, ptr %53, align 8, !tbaa !77
  %55 = load ptr, ptr %8, align 8, !tbaa !26
  %56 = getelementptr inbounds nuw %"struct.duckdb_libpgquery::yy_buffer_state", ptr %55, i32 0, i32 4
  store i64 %54, ptr %56, align 8, !tbaa !68
  %57 = load ptr, ptr %8, align 8, !tbaa !26
  %58 = getelementptr inbounds nuw %"struct.duckdb_libpgquery::yy_buffer_state", ptr %57, i32 0, i32 6
  store i32 0, ptr %58, align 4, !tbaa !92
  %59 = load ptr, ptr %8, align 8, !tbaa !26
  %60 = getelementptr inbounds nuw %"struct.duckdb_libpgquery::yy_buffer_state", ptr %59, i32 0, i32 7
  store i32 1, ptr %60, align 8, !tbaa !97
  %61 = load ptr, ptr %8, align 8, !tbaa !26
  %62 = getelementptr inbounds nuw %"struct.duckdb_libpgquery::yy_buffer_state", ptr %61, i32 0, i32 10
  store i32 0, ptr %62, align 4, !tbaa !89
  %63 = load ptr, ptr %8, align 8, !tbaa !26
  %64 = getelementptr inbounds nuw %"struct.duckdb_libpgquery::yy_buffer_state", ptr %63, i32 0, i32 11
  store i32 0, ptr %64, align 8, !tbaa !66
  %65 = load ptr, ptr %8, align 8, !tbaa !26
  %66 = load ptr, ptr %7, align 8, !tbaa !10
  call void @_ZN17duckdb_libpgquery24core_yy_switch_to_bufferEPNS_15yy_buffer_stateEPv(ptr noundef %65, ptr noundef %66)
  %67 = load ptr, ptr %8, align 8, !tbaa !26
  store ptr %67, ptr %4, align 8
  store i32 1, ptr %9, align 4
  br label %68

68:                                               ; preds = %36, %28
  call void @llvm.lifetime.end.p0(i64 8, ptr %8) #11
  %69 = load ptr, ptr %4, align 8
  ret ptr %69
}

; Function Attrs: mustprogress nounwind uwtable
define hidden void @_ZN17duckdb_libpgquery16core_yyset_extraEPNS_18core_yy_extra_typeEPv(ptr noundef %0, ptr noundef %1) #2 {
  %3 = alloca ptr, align 8
  %4 = alloca ptr, align 8
  %5 = alloca ptr, align 8
  store ptr %0, ptr %3, align 8, !tbaa !100
  store ptr %1, ptr %4, align 8, !tbaa !10
  call void @llvm.lifetime.start.p0(i64 8, ptr %5) #11
  %6 = load ptr, ptr %4, align 8, !tbaa !10
  store ptr %6, ptr %5, align 8, !tbaa !11
  %7 = load ptr, ptr %3, align 8, !tbaa !100
  %8 = load ptr, ptr %5, align 8, !tbaa !11
  %9 = getelementptr inbounds nuw %"struct.duckdb_libpgquery::yyguts_t", ptr %8, i32 0, i32 0
  store ptr %7, ptr %9, align 8, !tbaa !43
  call void @llvm.lifetime.end.p0(i64 8, ptr %5) #11
  ret void
}

; Function Attrs: mustprogress uwtable
define hidden noundef i32 @_ZN17duckdb_libpgquery15core_yylex_initEPPv(ptr noundef %0) #0 {
  %2 = alloca i32, align 4
  %3 = alloca ptr, align 8
  store ptr %0, ptr %3, align 8, !tbaa !10
  %4 = load ptr, ptr %3, align 8, !tbaa !10
  %5 = icmp eq ptr %4, null
  br i1 %5, label %6, label %8

6:                                                ; preds = %1
  %7 = call ptr @__errno_location() #14
  store i32 22, ptr %7, align 4, !tbaa !33
  store i32 1, ptr %2, align 4
  br label %22

8:                                                ; preds = %1
  %9 = call noundef ptr @_ZN17duckdb_libpgquery12core_yyallocEmPv(i64 noundef 168, ptr noundef null)
  %10 = load ptr, ptr %3, align 8, !tbaa !10
  store ptr %9, ptr %10, align 8, !tbaa !10
  %11 = load ptr, ptr %3, align 8, !tbaa !10
  %12 = load ptr, ptr %11, align 8, !tbaa !10
  %13 = icmp eq ptr %12, null
  br i1 %13, label %14, label %16

14:                                               ; preds = %8
  %15 = call ptr @__errno_location() #14
  store i32 12, ptr %15, align 4, !tbaa !33
  store i32 1, ptr %2, align 4
  br label %22

16:                                               ; preds = %8
  %17 = load ptr, ptr %3, align 8, !tbaa !10
  %18 = load ptr, ptr %17, align 8, !tbaa !10
  call void @llvm.memset.p0.i64(ptr align 1 %18, i8 0, i64 168, i1 false)
  %19 = load ptr, ptr %3, align 8, !tbaa !10
  %20 = load ptr, ptr %19, align 8, !tbaa !10
  %21 = call noundef i32 @_ZN17duckdb_libpgqueryL15yy_init_globalsEPv(ptr noundef %20)
  store i32 %21, ptr %2, align 4
  br label %22

22:                                               ; preds = %16, %14, %6
  %23 = load i32, ptr %2, align 4
  ret i32 %23
}

; Function Attrs: mustprogress uwtable
define hidden noundef ptr @_ZN17duckdb_libpgquery12scanner_initEPKcPNS_18core_yy_extra_typeEPKNS_13PGScanKeywordEi(ptr noundef %0, ptr noundef %1, ptr noundef %2, i32 noundef %3) #0 {
  %5 = alloca ptr, align 8
  %6 = alloca ptr, align 8
  %7 = alloca ptr, align 8
  %8 = alloca i32, align 4
  %9 = alloca i64, align 8
  %10 = alloca ptr, align 8
  store ptr %0, ptr %5, align 8, !tbaa !30
  store ptr %1, ptr %6, align 8, !tbaa !100
  store ptr %2, ptr %7, align 8, !tbaa !52
  store i32 %3, ptr %8, align 4, !tbaa !33
  call void @llvm.lifetime.start.p0(i64 8, ptr %9) #11
  %11 = load ptr, ptr %5, align 8, !tbaa !30
  %12 = call i64 @strlen(ptr noundef %11) #12
  store i64 %12, ptr %9, align 8, !tbaa !74
  call void @llvm.lifetime.start.p0(i64 8, ptr %10) #11
  %13 = call noundef i32 @_ZN17duckdb_libpgquery15core_yylex_initEPPv(ptr noundef %10)
  %14 = icmp ne i32 %13, 0
  br i1 %14, label %15, label %16

15:                                               ; preds = %4
  call void (i32, ptr, ...) @_ZN17duckdb_libpgquery4elogEiPKcz(i32 noundef 3, ptr noundef @.str.35)
  br label %16

16:                                               ; preds = %15, %4
  %17 = load ptr, ptr %6, align 8, !tbaa !100
  %18 = load ptr, ptr %10, align 8, !tbaa !10
  call void @_ZN17duckdb_libpgquery16core_yyset_extraEPNS_18core_yy_extra_typeEPv(ptr noundef %17, ptr noundef %18)
  %19 = load ptr, ptr %7, align 8, !tbaa !52
  %20 = load ptr, ptr %6, align 8, !tbaa !100
  %21 = getelementptr inbounds nuw %"struct.duckdb_libpgquery::core_yy_extra_type", ptr %20, i32 0, i32 2
  store ptr %19, ptr %21, align 8, !tbaa !50
  %22 = load i32, ptr %8, align 4, !tbaa !33
  %23 = load ptr, ptr %6, align 8, !tbaa !100
  %24 = getelementptr inbounds nuw %"struct.duckdb_libpgquery::core_yy_extra_type", ptr %23, i32 0, i32 3
  store i32 %22, ptr %24, align 8, !tbaa !51
  %25 = load i32, ptr @_ZN17duckdb_libpgquery15backslash_quoteE, align 4, !tbaa !33
  %26 = load ptr, ptr %6, align 8, !tbaa !100
  %27 = getelementptr inbounds nuw %"struct.duckdb_libpgquery::core_yy_extra_type", ptr %26, i32 0, i32 4
  store i32 %25, ptr %27, align 4, !tbaa !106
  %28 = load i8, ptr @_ZN17duckdb_libpgquery21escape_string_warningE, align 1, !tbaa !107, !range !59, !noundef !60
  %29 = trunc i8 %28 to i1
  %30 = load ptr, ptr %6, align 8, !tbaa !100
  %31 = getelementptr inbounds nuw %"struct.duckdb_libpgquery::core_yy_extra_type", ptr %30, i32 0, i32 5
  %32 = zext i1 %29 to i8
  store i8 %32, ptr %31, align 8, !tbaa !83
  %33 = load i8, ptr @_ZN17duckdb_libpgquery27standard_conforming_stringsE, align 1, !tbaa !107, !range !59, !noundef !60
  %34 = trunc i8 %33 to i1
  %35 = load ptr, ptr %6, align 8, !tbaa !100
  %36 = getelementptr inbounds nuw %"struct.duckdb_libpgquery::core_yy_extra_type", ptr %35, i32 0, i32 6
  %37 = zext i1 %34 to i8
  store i8 %37, ptr %36, align 1, !tbaa !58
  %38 = load i64, ptr %9, align 8, !tbaa !74
  %39 = add i64 %38, 2
  %40 = call noundef ptr @_ZN17duckdb_libpgquery6pallocEm(i64 noundef %39)
  %41 = load ptr, ptr %6, align 8, !tbaa !100
  %42 = getelementptr inbounds nuw %"struct.duckdb_libpgquery::core_yy_extra_type", ptr %41, i32 0, i32 0
  store ptr %40, ptr %42, align 8, !tbaa !44
  %43 = load i64, ptr %9, align 8, !tbaa !74
  %44 = load ptr, ptr %6, align 8, !tbaa !100
  %45 = getelementptr inbounds nuw %"struct.duckdb_libpgquery::core_yy_extra_type", ptr %44, i32 0, i32 1
  store i64 %43, ptr %45, align 8, !tbaa !108
  %46 = load ptr, ptr %6, align 8, !tbaa !100
  %47 = getelementptr inbounds nuw %"struct.duckdb_libpgquery::core_yy_extra_type", ptr %46, i32 0, i32 0
  %48 = load ptr, ptr %47, align 8, !tbaa !44
  %49 = load ptr, ptr %5, align 8, !tbaa !30
  %50 = load i64, ptr %9, align 8, !tbaa !74
  call void @llvm.memcpy.p0.p0.i64(ptr align 1 %48, ptr align 1 %49, i64 %50, i1 false)
  %51 = load ptr, ptr %6, align 8, !tbaa !100
  %52 = getelementptr inbounds nuw %"struct.duckdb_libpgquery::core_yy_extra_type", ptr %51, i32 0, i32 0
  %53 = load ptr, ptr %52, align 8, !tbaa !44
  %54 = load i64, ptr %9, align 8, !tbaa !74
  %55 = add i64 %54, 1
  %56 = getelementptr inbounds nuw i8, ptr %53, i64 %55
  store i8 0, ptr %56, align 1, !tbaa !32
  %57 = load ptr, ptr %6, align 8, !tbaa !100
  %58 = getelementptr inbounds nuw %"struct.duckdb_libpgquery::core_yy_extra_type", ptr %57, i32 0, i32 0
  %59 = load ptr, ptr %58, align 8, !tbaa !44
  %60 = load i64, ptr %9, align 8, !tbaa !74
  %61 = getelementptr inbounds nuw i8, ptr %59, i64 %60
  store i8 0, ptr %61, align 1, !tbaa !32
  %62 = load ptr, ptr %6, align 8, !tbaa !100
  %63 = getelementptr inbounds nuw %"struct.duckdb_libpgquery::core_yy_extra_type", ptr %62, i32 0, i32 0
  %64 = load ptr, ptr %63, align 8, !tbaa !44
  %65 = load i64, ptr %9, align 8, !tbaa !74
  %66 = add i64 %65, 2
  %67 = load ptr, ptr %10, align 8, !tbaa !10
  %68 = call noundef ptr @_ZN17duckdb_libpgquery19core_yy_scan_bufferEPcmPv(ptr noundef %64, i64 noundef %66, ptr noundef %67)
  %69 = load ptr, ptr %6, align 8, !tbaa !100
  %70 = getelementptr inbounds nuw %"struct.duckdb_libpgquery::core_yy_extra_type", ptr %69, i32 0, i32 9
  store i32 1024, ptr %70, align 4, !tbaa !80
  %71 = load ptr, ptr %6, align 8, !tbaa !100
  %72 = getelementptr inbounds nuw %"struct.duckdb_libpgquery::core_yy_extra_type", ptr %71, i32 0, i32 9
  %73 = load i32, ptr %72, align 4, !tbaa !80
  %74 = sext i32 %73 to i64
  %75 = call noundef ptr @_ZN17duckdb_libpgquery6pallocEm(i64 noundef %74)
  %76 = load ptr, ptr %6, align 8, !tbaa !100
  %77 = getelementptr inbounds nuw %"struct.duckdb_libpgquery::core_yy_extra_type", ptr %76, i32 0, i32 7
  store ptr %75, ptr %77, align 8, !tbaa !61
  %78 = load ptr, ptr %6, align 8, !tbaa !100
  %79 = getelementptr inbounds nuw %"struct.duckdb_libpgquery::core_yy_extra_type", ptr %78, i32 0, i32 8
  store i32 0, ptr %79, align 8, !tbaa !49
  %80 = load ptr, ptr %10, align 8, !tbaa !10
  call void @llvm.lifetime.end.p0(i64 8, ptr %10) #11
  call void @llvm.lifetime.end.p0(i64 8, ptr %9) #11
  ret ptr %80
}