; Function Attrs: mustprogress uwtable
define hidden noundef ptr @_ZN17duckdb_libpgquery12scanner_initEPKcPNS_18core_yy_extra_typeEPKNS_13PGScanKeywordEi(ptr noundef readonly captures(none) %0, ptr noundef %1, ptr noundef %2, i32 noundef %3) local_unnamed_addr #0 {
  %5 = tail call i64 @strlen(ptr noundef nonnull dereferenceable(1) %0) #23
  %6 = tail call noundef ptr @_ZN17duckdb_libpgquery6pallocEm(i64 noundef 168)
  %7 = icmp eq ptr %6, null
  br i1 %7, label %9, label %_ZN17duckdb_libpgquery15core_yylex_initEPPv.exit.thread

_ZN17duckdb_libpgquery15core_yylex_initEPPv.exit.thread: ; preds = %4
  %8 = getelementptr inbounds nuw i8, ptr %6, i64 8
  tail call void @llvm.memset.p0.i64(ptr noundef nonnull align 1 dereferenceable(160) %8, i8 0, i64 160, i1 false)
  br label %11

9:                                                ; preds = %4
  %10 = tail call ptr @__errno_location() #21
  store i32 12, ptr %10, align 4, !tbaa !48
  tail call void (i32, ptr, ...) @_ZN17duckdb_libpgquery4elogEiPKcz(i32 noundef 3, ptr noundef nonnull @.str.35)
  br label %11

11:                                               ; preds = %_ZN17duckdb_libpgquery15core_yylex_initEPPv.exit.thread, %9
  store ptr %1, ptr %6, align 8, !tbaa !43
  %12 = getelementptr inbounds nuw i8, ptr %1, i64 16
  store ptr %2, ptr %12, align 8, !tbaa !54
  %13 = getelementptr inbounds nuw i8, ptr %1, i64 24
  store i32 %3, ptr %13, align 8, !tbaa !55
  %14 = load i32, ptr @_ZN17duckdb_libpgquery15backslash_quoteE, align 4, !tbaa !48
  %15 = getelementptr inbounds nuw i8, ptr %1, i64 28
  store i32 %14, ptr %15, align 4, !tbaa !98
  %16 = load i8, ptr @_ZN17duckdb_libpgquery21escape_string_warningE, align 1, !tbaa !99, !range !62, !noundef !63
  %17 = getelementptr inbounds nuw i8, ptr %1, i64 32
  store i8 %16, ptr %17, align 8, !tbaa !67
  %18 = load i8, ptr @_ZN17duckdb_libpgquery27standard_conforming_stringsE, align 1, !tbaa !99, !range !62, !noundef !63
  %19 = getelementptr inbounds nuw i8, ptr %1, i64 33
  store i8 %18, ptr %19, align 1, !tbaa !61
  %20 = add i64 %5, 2
  %21 = tail call noundef ptr @_ZN17duckdb_libpgquery6pallocEm(i64 noundef %20)
  store ptr %21, ptr %1, align 8, !tbaa !44
  %22 = getelementptr inbounds nuw i8, ptr %1, i64 8
  store i64 %5, ptr %22, align 8, !tbaa !100
  tail call void @llvm.memcpy.p0.p0.i64(ptr align 1 %21, ptr nonnull align 1 %0, i64 %5, i1 false)
  %23 = load ptr, ptr %1, align 8, !tbaa !44
  %24 = getelementptr i8, ptr %23, i64 %5
  %25 = getelementptr i8, ptr %24, i64 1
  store i8 0, ptr %25, align 1, !tbaa !32
  %26 = load ptr, ptr %1, align 8, !tbaa !44
  %27 = getelementptr inbounds nuw i8, ptr %26, i64 %5
  store i8 0, ptr %27, align 1, !tbaa !32
  %28 = load ptr, ptr %1, align 8, !tbaa !44
  %29 = icmp ugt i64 %5, -3
  br i1 %29, label %_ZN17duckdb_libpgquery19core_yy_scan_bufferEPcmPv.exit, label %30

30:                                               ; preds = %11
  %31 = getelementptr inbounds nuw i8, ptr %28, i64 %5
  %32 = load i8, ptr %31, align 1, !tbaa !32
  %.not.i = icmp eq i8 %32, 0
  br i1 %.not.i, label %33, label %_ZN17duckdb_libpgquery19core_yy_scan_bufferEPcmPv.exit

33:                                               ; preds = %30
  %34 = getelementptr i8, ptr %28, i64 %20
  %35 = getelementptr i8, ptr %34, i64 -1
  %36 = load i8, ptr %35, align 1, !tbaa !32
  %.not26.i = icmp eq i8 %36, 0
  br i1 %.not26.i, label %37, label %_ZN17duckdb_libpgquery19core_yy_scan_bufferEPcmPv.exit

37:                                               ; preds = %33
  %38 = tail call noundef ptr @_ZN17duckdb_libpgquery6pallocEm(i64 noundef 72)
  %.not27.i = icmp eq ptr %38, null
  br i1 %.not27.i, label %39, label %40

39:                                               ; preds = %37
  tail call fastcc void @_ZN17duckdb_libpgqueryL14yy_fatal_errorEPKcPv(ptr noundef nonnull @.str.28) #20
  unreachable

40:                                               ; preds = %37
  %sext.i = shl i64 %5, 32
  %41 = ashr exact i64 %sext.i, 32
  %42 = getelementptr inbounds nuw i8, ptr %38, i64 24
  store i64 %41, ptr %42, align 8, !tbaa !77
  %43 = getelementptr inbounds nuw i8, ptr %38, i64 8
  store ptr %28, ptr %43, align 8, !tbaa !71
  %44 = getelementptr inbounds nuw i8, ptr %38, i64 16
  store ptr %28, ptr %44, align 8, !tbaa !28
  %45 = getelementptr inbounds nuw i8, ptr %38, i64 40
  store i32 0, ptr %45, align 8, !tbaa !78
  store ptr null, ptr %38, align 8, !tbaa !31
  %46 = getelementptr inbounds nuw i8, ptr %38, i64 32
  store i64 %41, ptr %46, align 8, !tbaa !25
  %47 = getelementptr inbounds nuw i8, ptr %38, i64 44
  store i32 0, ptr %47, align 4, !tbaa !80
  %48 = getelementptr inbounds nuw i8, ptr %38, i64 48
  store i32 1, ptr %48, align 8, !tbaa !84
  %49 = getelementptr inbounds nuw i8, ptr %38, i64 60
  store i32 0, ptr %49, align 4, !tbaa !75
  %50 = getelementptr inbounds nuw i8, ptr %38, i64 64
  store i32 0, ptr %50, align 8, !tbaa !70
  tail call void @_ZN17duckdb_libpgquery24core_yy_switch_to_bufferEPNS_15yy_buffer_stateEPv(ptr noundef nonnull %38, ptr noundef nonnull %6)
  br label %_ZN17duckdb_libpgquery19core_yy_scan_bufferEPcmPv.exit

_ZN17duckdb_libpgquery19core_yy_scan_bufferEPcmPv.exit: ; preds = %11, %30, %33, %40
  %51 = getelementptr inbounds nuw i8, ptr %1, i64 52
  store i32 1024, ptr %51, align 4, !tbaa !51
  %52 = tail call noundef ptr @_ZN17duckdb_libpgquery6pallocEm(i64 noundef 1024)
  %53 = getelementptr inbounds nuw i8, ptr %1, i64 40
  store ptr %52, ptr %53, align 8, !tbaa !52
  %54 = getelementptr inbounds nuw i8, ptr %1, i64 48
  store i32 0, ptr %54, align 8, !tbaa !50
  ret ptr %6
}